target datalayout = "e-m:e-p270:32:32-p271:32:32-p272:64:64-i64:64-i128:128-f80:128-n8:16:32:64-S128"
target triple = "x86_64-pc-linux-gnu"

%struct.grpc_slice = type { ptr, %"union.grpc_slice::grpc_slice_data" }
%"union.grpc_slice::grpc_slice_data" = type { %"struct.grpc_slice::grpc_slice_data::grpc_slice_refcounted", [8 x i8] }
%"struct.grpc_slice::grpc_slice_data::grpc_slice_refcounted" = type { i64, ptr }
%"class.grpc_core::Slice" = type { %"class.grpc_core::slice_detail::BaseSlice" }
%"class.grpc_core::slice_detail::BaseSlice" = type { %struct.grpc_slice }
%"class.std::basic_string_view" = type { i64, ptr }
%"class.grpc_core::DebugLocation" = type { i8 }
%"struct.grpc_slice::grpc_slice_data::grpc_slice_inlined" = type { i8, [23 x i8] }
%struct.grpc_slice_refcount = type { %"struct.std::atomic.131", ptr }
%"struct.std::atomic.131" = type { %"struct.std::__atomic_base.132" }
%"struct.std::__atomic_base.132" = type { i64 }

; Function Attrs: alwaysinline mustprogress nounwind uwtable
define linkonce_odr noundef i64 @_ZNSt13__atomic_baseImE9fetch_addEmSt12memory_order(ptr noundef nonnull align 8 dereferenceable(8) %0, i64 noundef %1, i32 noundef %2) #14 comdat align 2 {
  %4 = alloca ptr, align 8
  %5 = alloca i64, align 8
  %6 = alloca i32, align 4
  %7 = alloca i64, align 8
  %8 = alloca i64, align 8
  store ptr %0, ptr %4, align 8, !tbaa !245
  store i64 %1, ptr %5, align 8, !tbaa !30
  store i32 %2, ptr %6, align 4, !tbaa !232
  %9 = load ptr, ptr %4, align 8
  %10 = getelementptr inbounds nuw %"struct.std::__atomic_base.132", ptr %9, i32 0, i32 0
  %11 = load i32, ptr %6, align 4, !tbaa !232
  %12 = load i64, ptr %5, align 8, !tbaa !30
  store i64 %12, ptr %7, align 8, !tbaa !30
  switch i32 %11, label %13 [
    i32 1, label %16
    i32 2, label %16
    i32 3, label %19
    i32 4, label %22
    i32 5, label %25
  ]

13:                                               ; preds = %3
  %14 = load i64, ptr %7, align 8
  %15 = atomicrmw add ptr %10, i64 %14 monotonic, align 8
  store i64 %15, ptr %8, align 8
  br label %28

16:                                               ; preds = %3, %3
  %17 = load i64, ptr %7, align 8
  %18 = atomicrmw add ptr %10, i64 %17 acquire, align 8
  store i64 %18, ptr %8, align 8
  br label %28

19:                                               ; preds = %3
  %20 = load i64, ptr %7, align 8
  %21 = atomicrmw add ptr %10, i64 %20 release, align 8
  store i64 %21, ptr %8, align 8
  br label %28

22:                                               ; preds = %3
  %23 = load i64, ptr %7, align 8
  %24 = atomicrmw add ptr %10, i64 %23 acq_rel, align 8
  store i64 %24, ptr %8, align 8
  br label %28

25:                                               ; preds = %3
  %26 = load i64, ptr %7, align 8
  %27 = atomicrmw add ptr %10, i64 %26 seq_cst, align 8
  store i64 %27, ptr %8, align 8
  br label %28

28:                                               ; preds = %25, %22, %19, %16, %13
  %29 = load i64, ptr %8, align 8, !tbaa !30
  ret i64 %29
}

; Function Attrs: mustprogress nounwind uwtable
define linkonce_odr void @_ZN9grpc_core12slice_detail9BaseSliceC2ERK10grpc_slice(ptr noundef nonnull align 8 dereferenceable(32) %0, ptr noundef nonnull align 8 dereferenceable(32) %1) unnamed_addr #6 comdat align 2 {
  %3 = alloca ptr, align 8
  %4 = alloca ptr, align 8
  store ptr %0, ptr %3, align 8, !tbaa !137
  store ptr %1, ptr %4, align 8, !tbaa !238
  %5 = load ptr, ptr %3, align 8
  %6 = getelementptr inbounds nuw %"class.grpc_core::slice_detail::BaseSlice", ptr %5, i32 0, i32 0
  %7 = load ptr, ptr %4, align 8, !tbaa !238
  call void @llvm.memcpy.p0.p0.i64(ptr align 8 %6, ptr align 8 %7, i64 32, i1 false), !tbaa.struct !180
  ret void
}

; Function Attrs: mustprogress nounwind uwtable
define linkonce_odr void @_ZN19grpc_slice_refcount3RefEN9grpc_core13DebugLocationE(ptr noundef nonnull align 8 dereferenceable(16) %0) #6 comdat align 2 {
  %2 = alloca ptr, align 8
  %3 = alloca i64, align 8
  store ptr %0, ptr %2, align 8, !tbaa !181
  %4 = load ptr, ptr %2, align 8
  call void @llvm.lifetime.start.p0(i64 8, ptr %3) #3
  %5 = getelementptr inbounds nuw %struct.grpc_slice_refcount, ptr %4, i32 0, i32 0
  %6 = call noundef i64 @_ZNSt13__atomic_baseImE9fetch_addEmSt12memory_order(ptr noundef nonnull align 8 dereferenceable(8) %5, i64 noundef 1, i32 noundef 0) #3
  store i64 %6, ptr %3, align 8, !tbaa !30
  call void @llvm.lifetime.end.p0(i64 8, ptr %3) #3
  ret void
}

; Function Attrs: mustprogress nounwind uwtable
define linkonce_odr noundef ptr @_ZN19grpc_slice_refcount12NoopRefcountEv() #6 comdat align 2 {
  ret ptr inttoptr (i64 1 to ptr)
}

; Function Attrs: mustprogress nounwind uwtable
define linkonce_odr void @_ZN9grpc_core5SliceC2ERK10grpc_slice(ptr noundef nonnull align 8 dereferenceable(32) %0, ptr noundef nonnull align 8 dereferenceable(32) %1) unnamed_addr #6 comdat align 2 {
  %3 = alloca ptr, align 8
  %4 = alloca ptr, align 8
  store ptr %0, ptr %3, align 8, !tbaa !134
  store ptr %1, ptr %4, align 8, !tbaa !238
  %5 = load ptr, ptr %3, align 8
  %6 = load ptr, ptr %4, align 8, !tbaa !238
  call void @_ZN9grpc_core12slice_detail9BaseSliceC2ERK10grpc_slice(ptr noundef nonnull align 8 dereferenceable(32) %5, ptr noundef nonnull align 8 dereferenceable(32) %6)
  ret void
}

; Function Attrs: inlinehint mustprogress uwtable
define linkonce_odr noundef nonnull align 8 dereferenceable(32) ptr @_ZN9grpc_core9CSliceRefERK10grpc_sliceNS_13DebugLocationE(ptr noundef nonnull align 8 dereferenceable(32) %0) #12 comdat {
  %2 = alloca ptr, align 8
  store ptr %0, ptr %2, align 8, !tbaa !238
  %3 = load ptr, ptr %2, align 8, !tbaa !238
  %4 = getelementptr inbounds nuw %struct.grpc_slice, ptr %3, i32 0, i32 0
  %5 = load ptr, ptr %4, align 8, !tbaa !200
  %6 = ptrtoint ptr %5 to i64
  %7 = icmp ugt i64 %6, 1
  br i1 %7, label %8, label %12

8:                                                ; preds = %1
  %9 = load ptr, ptr %2, align 8, !tbaa !238
  %10 = getelementptr inbounds nuw %struct.grpc_slice, ptr %9, i32 0, i32 0
  %11 = load ptr, ptr %10, align 8, !tbaa !200
  call void @_ZN19grpc_slice_refcount3RefEN9grpc_core13DebugLocationE(ptr noundef nonnull align 8 dereferenceable(16) %11)
  br label %12

12:                                               ; preds = %8, %1
  %13 = load ptr, ptr %2, align 8, !tbaa !238
  ret ptr %13
}

; Function Attrs: mustprogress nounwind uwtable
define linkonce_odr void @_ZN9grpc_core13DebugLocationC2Ev(ptr noundef nonnull align 1 dereferenceable(1) %0) unnamed_addr #6 comdat align 2 {
  %2 = alloca ptr, align 8
  store ptr %0, ptr %2, align 8, !tbaa !239
  ret void
}

; Function Attrs: mustprogress uwtable
define linkonce_odr void @_ZN9grpc_core12slice_detail18StaticConstructorsINS_5SliceEE16FromStaticBufferEPKvm(ptr dead_on_unwind noalias writable sret(%"class.grpc_core::Slice") align 8 %0, ptr noundef %1, i64 noundef %2) #4 comdat align 2 {
  %4 = alloca ptr, align 8
  %5 = alloca ptr, align 8
  %6 = alloca i64, align 8
  %7 = alloca %struct.grpc_slice, align 8
  store ptr %0, ptr %4, align 8
  store ptr %1, ptr %5, align 8, !tbaa !225
  store i64 %2, ptr %6, align 8, !tbaa !30
  call void @llvm.lifetime.start.p0(i64 32, ptr %7) #3
  %8 = call noundef ptr @_ZN19grpc_slice_refcount12NoopRefcountEv()
  %9 = getelementptr inbounds nuw %struct.grpc_slice, ptr %7, i32 0, i32 0
  store ptr %8, ptr %9, align 8, !tbaa !200
  %10 = load ptr, ptr %5, align 8, !tbaa !225
  %11 = getelementptr inbounds nuw %struct.grpc_slice, ptr %7, i32 0, i32 1
  %12 = getelementptr inbounds nuw %"struct.grpc_slice::grpc_slice_data::grpc_slice_refcounted", ptr %11, i32 0, i32 1
  store ptr %10, ptr %12, align 8, !tbaa !14
  %13 = load i64, ptr %6, align 8, !tbaa !30
  %14 = getelementptr inbounds nuw %struct.grpc_slice, ptr %7, i32 0, i32 1
  %15 = getelementptr inbounds nuw %"struct.grpc_slice::grpc_slice_data::grpc_slice_refcounted", ptr %14, i32 0, i32 0
  store i64 %13, ptr %15, align 8, !tbaa !14
  call void @_ZN9grpc_core5SliceC2ERK10grpc_slice(ptr noundef nonnull align 8 dereferenceable(32) %0, ptr noundef nonnull align 8 dereferenceable(32) %7)
  call void @llvm.lifetime.end.p0(i64 32, ptr %7) #3
  ret void
}

; Function Attrs: mustprogress nounwind uwtable
define linkonce_odr noundef ptr @_ZNKSt17basic_string_viewIcSt11char_traitsIcEE4dataEv(ptr noundef nonnull align 8 dereferenceable(16) %0) #6 comdat align 2 {
  %2 = alloca ptr, align 8
  store ptr %0, ptr %2, align 8, !tbaa !174
  %3 = load ptr, ptr %2, align 8
  %4 = getelementptr inbounds nuw %"class.std::basic_string_view", ptr %3, i32 0, i32 1
  %5 = load ptr, ptr %4, align 8, !tbaa !188
  ret ptr %5
}

; Function Attrs: mustprogress nounwind uwtable
define linkonce_odr noundef nonnull align 8 dereferenceable(32) ptr @_ZNK9grpc_core12slice_detail9BaseSlice7c_sliceEv(ptr noundef nonnull align 8 dereferenceable(32) %0) #6 comdat align 2 {
  %2 = alloca ptr, align 8
  store ptr %0, ptr %2, align 8, !tbaa !137
  %3 = load ptr, ptr %2, align 8
  %4 = getelementptr inbounds nuw %"class.grpc_core::slice_detail::BaseSlice", ptr %3, i32 0, i32 0
  ret ptr %4
}

; Function Attrs: mustprogress uwtable
define linkonce_odr void @_ZNK9grpc_core5Slice3RefEv(ptr dead_on_unwind noalias writable sret(%"class.grpc_core::Slice") align 8 %0, ptr noundef nonnull align 8 dereferenceable(32) %1) #4 comdat align 2 {
  %3 = alloca ptr, align 8
  %4 = alloca ptr, align 8
  %5 = alloca %"class.grpc_core::DebugLocation", align 1
  store ptr %0, ptr %3, align 8
  store ptr %1, ptr %4, align 8, !tbaa !134
  %6 = load ptr, ptr %4, align 8
  %7 = call noundef nonnull align 8 dereferenceable(32) ptr @_ZNK9grpc_core12slice_detail9BaseSlice7c_sliceEv(ptr noundef nonnull align 8 dereferenceable(32) %6)
  call void @_ZN9grpc_core13DebugLocationC2Ev(ptr noundef nonnull align 1 dereferenceable(1) %5)
  %8 = call noundef nonnull align 8 dereferenceable(32) ptr @_ZN9grpc_core9CSliceRefERK10grpc_sliceNS_13DebugLocationE(ptr noundef nonnull align 8 dereferenceable(32) %7)
  call void @_ZN9grpc_core5SliceC2ERK10grpc_slice(ptr noundef nonnull align 8 dereferenceable(32) %0, ptr noundef nonnull align 8 dereferenceable(32) %8)
  ret void
}

; Function Attrs: mustprogress uwtable
define linkonce_odr void @_ZN9grpc_core12slice_detail18StaticConstructorsINS_5SliceEE16FromStaticStringESt17basic_string_viewIcSt11char_traitsIcEE(ptr dead_on_unwind noalias writable sret(%"class.grpc_core::Slice") align 8 %0, i64 %1, ptr %2) #4 comdat align 2 {
  %4 = alloca ptr, align 8
  %5 = alloca %"class.std::basic_string_view", align 8
  store ptr %0, ptr %4, align 8
  %6 = getelementptr inbounds nuw { i64, ptr }, ptr %5, i32 0, i32 0
  store i64 %1, ptr %6, align 8
  %7 = getelementptr inbounds nuw { i64, ptr }, ptr %5, i32 0, i32 1
  store ptr %2, ptr %7, align 8
  %8 = call noundef ptr @_ZNKSt17basic_string_viewIcSt11char_traitsIcEE4dataEv(ptr noundef nonnull align 8 dereferenceable(16) %5) #3
  %9 = call noundef i64 @_ZNKSt17basic_string_viewIcSt11char_traitsIcEE4sizeEv(ptr noundef nonnull align 8 dereferenceable(16) %5) #3
  call void @_ZN9grpc_core12slice_detail18StaticConstructorsINS_5SliceEE16FromStaticBufferEPKvm(ptr dead_on_unwind writable sret(%"class.grpc_core::Slice") align 8 %0, ptr noundef %8, i64 noundef %9)
  ret void
}

; Function Attrs: mustprogress nounwind uwtable
define internal noundef i64 @_ZN9grpc_core15hpack_constantsL12SizeForEntryEmm(i64 noundef %0, i64 noundef %1) #6 {
  %3 = alloca i64, align 8
  %4 = alloca i64, align 8
  store i64 %0, ptr %3, align 8, !tbaa !30
  store i64 %1, ptr %4, align 8, !tbaa !30
  %5 = load i64, ptr %3, align 8, !tbaa !30
  %6 = load i64, ptr %4, align 8, !tbaa !30
  %7 = add i64 %5, %6
  %8 = add i64 %7, 32
  ret i64 %8
}

; Function Attrs: mustprogress nounwind uwtable
define linkonce_odr noundef i64 @_ZNK9grpc_core12slice_detail9BaseSlice4sizeEv(ptr noundef nonnull align 8 dereferenceable(32) %0) #6 comdat align 2 {
  %2 = alloca ptr, align 8
  store ptr %0, ptr %2, align 8, !tbaa !137
  %3 = load ptr, ptr %2, align 8
  %4 = call noundef nonnull align 8 dereferenceable(32) ptr @_ZNK9grpc_core12slice_detail9BaseSlice7c_sliceEv(ptr noundef nonnull align 8 dereferenceable(32) %3)
  %5 = getelementptr inbounds nuw %struct.grpc_slice, ptr %4, i32 0, i32 0
  %6 = load ptr, ptr %5, align 8, !tbaa !200
  %7 = icmp ne ptr %6, null
  br i1 %7, label %8, label %13

8:                                                ; preds = %1
  %9 = call noundef nonnull align 8 dereferenceable(32) ptr @_ZNK9grpc_core12slice_detail9BaseSlice7c_sliceEv(ptr noundef nonnull align 8 dereferenceable(32) %3)
  %10 = getelementptr inbounds nuw %struct.grpc_slice, ptr %9, i32 0, i32 1
  %11 = getelementptr inbounds nuw %"struct.grpc_slice::grpc_slice_data::grpc_slice_refcounted", ptr %10, i32 0, i32 0
  %12 = load i64, ptr %11, align 8, !tbaa !14
  br label %19

13:                                               ; preds = %1
  %14 = call noundef nonnull align 8 dereferenceable(32) ptr @_ZNK9grpc_core12slice_detail9BaseSlice7c_sliceEv(ptr noundef nonnull align 8 dereferenceable(32) %3)
  %15 = getelementptr inbounds nuw %struct.grpc_slice, ptr %14, i32 0, i32 1
  %16 = getelementptr inbounds nuw %"struct.grpc_slice::grpc_slice_data::grpc_slice_inlined", ptr %15, i32 0, i32 0
  %17 = load i8, ptr %16, align 8, !tbaa !14
  %18 = zext i8 %17 to i64
  br label %19

19:                                               ; preds = %13, %8
  %20 = phi i64 [ %12, %8 ], [ %18, %13 ]
  ret i64 %20
}

; Function Attrs: mustprogress nounwind uwtable
define linkonce_odr noundef i64 @_ZNKSt17basic_string_viewIcSt11char_traitsIcEE4sizeEv(ptr noundef nonnull align 8 dereferenceable(16) %0) #6 comdat align 2 {
  %2 = alloca ptr, align 8
  store ptr %0, ptr %2, align 8, !tbaa !174
  %3 = load ptr, ptr %2, align 8
  %4 = getelementptr inbounds nuw %"class.std::basic_string_view", ptr %3, i32 0, i32 0
  %5 = load i64, ptr %4, align 8, !tbaa !176
  ret i64 %5
}

; Function Attrs: mustprogress uwtable
define void @_ZN9grpc_core20hpack_encoder_detail7Encoder25EncodeRepeatingSliceValueERKSt17basic_string_viewIcSt11char_traitsIcEERKNS_5SliceEPjm(ptr noundef nonnull align 8 dereferenceable(24) %0, ptr noundef nonnull align 8 dereferenceable(16) %1, ptr noundef nonnull align 8 dereferenceable(32) %2, ptr noundef %3, i64 noundef %4) #4 align 2 personality ptr @__gxx_personality_v0 {
  %6 = alloca ptr, align 8
  %7 = alloca ptr, align 8
  %8 = alloca ptr, align 8
  %9 = alloca ptr, align 8
  %10 = alloca i64, align 8
  %11 = alloca %"class.grpc_core::Slice", align 8
  %12 = alloca %"class.std::basic_string_view", align 8
  %13 = alloca %"class.grpc_core::Slice", align 8
  %14 = alloca ptr, align 8
  %15 = alloca i32, align 4
  %16 = alloca %"class.std::basic_string_view", align 8
  %17 = alloca %"class.grpc_core::Slice", align 8
  store ptr %0, ptr %6, align 8, !tbaa !125
  store ptr %1, ptr %7, align 8, !tbaa !174
  store ptr %2, ptr %8, align 8, !tbaa !134
  store ptr %3, ptr %9, align 8, !tbaa !114
  store i64 %4, ptr %10, align 8, !tbaa !30
  %18 = load ptr, ptr %6, align 8
  %19 = load ptr, ptr %7, align 8, !tbaa !174
  %20 = call noundef i64 @_ZNKSt17basic_string_viewIcSt11char_traitsIcEE4sizeEv(ptr noundef nonnull align 8 dereferenceable(16) %19) #3
  %21 = load ptr, ptr %8, align 8, !tbaa !134
  %22 = call noundef i64 @_ZNK9grpc_core12slice_detail9BaseSlice4sizeEv(ptr noundef nonnull align 8 dereferenceable(32) %21)
  %23 = call noundef i64 @_ZN9grpc_core15hpack_constantsL12SizeForEntryEmm(i64 noundef %20, i64 noundef %22) #3
  %24 = load i64, ptr %10, align 8, !tbaa !30
  %25 = icmp ugt i64 %23, %24
  br i1 %25, label %26, label %44

26:                                               ; preds = %5
  %27 = load ptr, ptr %7, align 8, !tbaa !174
  call void @llvm.memcpy.p0.p0.i64(ptr align 8 %12, ptr align 8 %27, i64 16, i1 false), !tbaa.struct !165
  %28 = getelementptr inbounds nuw { i64, ptr }, ptr %12, i32 0, i32 0
  %29 = load i64, ptr %28, align 8
  %30 = getelementptr inbounds nuw { i64, ptr }, ptr %12, i32 0, i32 1
  %31 = load ptr, ptr %30, align 8
  call void @_ZN9grpc_core12slice_detail18StaticConstructorsINS_5SliceEE16FromStaticStringESt17basic_string_viewIcSt11char_traitsIcEE(ptr dead_on_unwind writable sret(%"class.grpc_core::Slice") align 8 %11, i64 %29, ptr %31)
  %32 = load ptr, ptr %8, align 8, !tbaa !134
  invoke void @_ZNK9grpc_core5Slice3RefEv(ptr dead_on_unwind writable sret(%"class.grpc_core::Slice") align 8 %13, ptr noundef nonnull align 8 dereferenceable(32) %32)
          to label %33 unwind label %35

33:                                               ; preds = %26
  invoke void @_ZN9grpc_core20hpack_encoder_detail7Encoder35EmitLitHdrWithBinaryStringKeyNotIdxENS_5SliceES2_(ptr noundef nonnull align 8 dereferenceable(24) %18, ptr noundef %11, ptr noundef %13)
          to label %34 unwind label %39

34:                                               ; preds = %33
  call void @_ZN9grpc_core5SliceD2Ev(ptr noundef nonnull align 8 dereferenceable(32) %13) #3
  call void @_ZN9grpc_core5SliceD2Ev(ptr noundef nonnull align 8 dereferenceable(32) %11) #3
  br label %57

35:                                               ; preds = %26
  %36 = landingpad { ptr, i32 }
          cleanup
  %37 = extractvalue { ptr, i32 } %36, 0
  store ptr %37, ptr %14, align 8
  %38 = extractvalue { ptr, i32 } %36, 1
  store i32 %38, ptr %15, align 4
  br label %43

39:                                               ; preds = %33
  %40 = landingpad { ptr, i32 }
          cleanup
  %41 = extractvalue { ptr, i32 } %40, 0
  store ptr %41, ptr %14, align 8
  %42 = extractvalue { ptr, i32 } %40, 1
  store i32 %42, ptr %15, align 4
  call void @_ZN9grpc_core5SliceD2Ev(ptr noundef nonnull align 8 dereferenceable(32) %13) #3
  br label %43

43:                                               ; preds = %39, %35
  call void @_ZN9grpc_core5SliceD2Ev(ptr noundef nonnull align 8 dereferenceable(32) %11) #3
  br label %58

44:                                               ; preds = %5
  %45 = load ptr, ptr %9, align 8, !tbaa !114
  %46 = load ptr, ptr %7, align 8, !tbaa !174
  call void @llvm.memcpy.p0.p0.i64(ptr align 8 %16, ptr align 8 %46, i64 16, i1 false), !tbaa.struct !165
  %47 = load ptr, ptr %8, align 8, !tbaa !134
  call void @_ZNK9grpc_core5Slice3RefEv(ptr dead_on_unwind writable sret(%"class.grpc_core::Slice") align 8 %17, ptr noundef nonnull align 8 dereferenceable(32) %47)
  %48 = getelementptr inbounds nuw { i64, ptr }, ptr %16, i32 0, i32 0
  %49 = load i64, ptr %48, align 8
  %50 = getelementptr inbounds nuw { i64, ptr }, ptr %16, i32 0, i32 1
  %51 = load ptr, ptr %50, align 8
  invoke void @_ZN9grpc_core20hpack_encoder_detail7Encoder31EncodeIndexedKeyWithBinaryValueEPjSt17basic_string_viewIcSt11char_traitsIcEENS_5SliceE(ptr noundef nonnull align 8 dereferenceable(24) %18, ptr noundef %45, i64 %49, ptr %51, ptr noundef %17)
          to label %52 unwind label %53

52:                                               ; preds = %44
  call void @_ZN9grpc_core5SliceD2Ev(ptr noundef nonnull align 8 dereferenceable(32) %17) #3
  br label %57

53:                                               ; preds = %44
  %54 = landingpad { ptr, i32 }
          cleanup
  %55 = extractvalue { ptr, i32 } %54, 0
  store ptr %55, ptr %14, align 8
  %56 = extractvalue { ptr, i32 } %54, 1
  store i32 %56, ptr %15, align 4
  call void @_ZN9grpc_core5SliceD2Ev(ptr noundef nonnull align 8 dereferenceable(32) %17) #3
  br label %58

57:                                               ; preds = %52, %34
  ret void

58:                                               ; preds = %53, %43
  %59 = load ptr, ptr %14, align 8
  %60 = load i32, ptr %15, align 4
  %61 = insertvalue { ptr, i32 } poison, ptr %59, 0
  %62 = insertvalue { ptr, i32 } %61, i32 %60, 1
  resume { ptr, i32 } %62
}