; Function Attrs: mustprogress uwtable
define void @_ZN9grpc_core20hpack_encoder_detail7Encoder25EncodeRepeatingSliceValueERKSt17basic_string_viewIcSt11char_traitsIcEERKNS_5SliceEPjm(ptr noundef nonnull readonly align 8 captures(none) dereferenceable(24) %0, ptr noundef nonnull readonly align 8 captures(none) dereferenceable(16) %1, ptr noundef nonnull readonly align 8 captures(none) dereferenceable(32) %2, ptr noundef captures(none) %3, i64 noundef %4) local_unnamed_addr #3 align 2 personality ptr @__gxx_personality_v0 {
  %6 = alloca %"class.grpc_core::Slice", align 8
  %7 = alloca %"class.grpc_core::Slice", align 8
  %8 = alloca %"class.grpc_core::Slice", align 8
  %9 = load i64, ptr %1, align 8, !tbaa !319
  %10 = load ptr, ptr %2, align 8, !tbaa !107
  %.not.i = icmp eq ptr %10, null
  %11 = getelementptr inbounds nuw i8, ptr %2, i64 8
  %12 = load i64, ptr %11, align 8
  %13 = and i64 %12, 255
  %14 = select i1 %.not.i, i64 %13, i64 %12
  %15 = add i64 %9, 32
  %16 = add i64 %15, %14
  %17 = icmp ugt i64 %16, %4
  %.sroa.22.0..sroa_idx = getelementptr inbounds nuw i8, ptr %1, i64 8
  %.sroa.22.0.copyload = load ptr, ptr %.sroa.22.0..sroa_idx, align 8, !tbaa !322
  br i1 %17, label %18, label %48

18:                                               ; preds = %5
  store ptr inttoptr (i64 1 to ptr), ptr %6, align 8, !tbaa !169, !alias.scope !323
  %.sroa.4.0..sroa_idx.i.i = getelementptr inbounds nuw i8, ptr %6, i64 8
  store i64 %9, ptr %.sroa.4.0..sroa_idx.i.i, align 8, !alias.scope !323
  %.sroa.5.0..sroa_idx.i.i = getelementptr inbounds nuw i8, ptr %6, i64 16
  store ptr %.sroa.22.0.copyload, ptr %.sroa.5.0..sroa_idx.i.i, align 8, !alias.scope !323
  %19 = icmp ugt ptr %10, inttoptr (i64 1 to ptr)
  br i1 %19, label %20, label %22

20:                                               ; preds = %18
  %21 = atomicrmw add ptr %10, i64 1 monotonic, align 8, !noalias !328
  br label %22

22:                                               ; preds = %20, %18
  call void @llvm.memcpy.p0.p0.i64(ptr noundef nonnull align 8 dereferenceable(32) %7, ptr noundef nonnull align 8 dereferenceable(32) %2, i64 32, i1 false), !tbaa.struct !237
  invoke void @_ZN9grpc_core20hpack_encoder_detail7Encoder35EmitLitHdrWithBinaryStringKeyNotIdxENS_5SliceES2_(ptr noundef nonnull align 8 dereferenceable(24) %0, ptr noundef nonnull %6, ptr noundef nonnull %7)
          to label %23 unwind label %46

23:                                               ; preds = %22
  %24 = load ptr, ptr %7, align 8, !tbaa !107
  %25 = icmp ugt ptr %24, inttoptr (i64 1 to ptr)
  br i1 %25, label %26, label %_ZN9grpc_core5SliceD2Ev.exit

26:                                               ; preds = %23
  %27 = atomicrmw sub ptr %24, i64 1 acq_rel, align 8
  %28 = icmp eq i64 %27, 1
  br i1 %28, label %29, label %_ZN9grpc_core5SliceD2Ev.exit

29:                                               ; preds = %26
  %30 = getelementptr inbounds nuw i8, ptr %24, i64 8
  %31 = load ptr, ptr %30, align 8, !tbaa !123
  invoke void %31(ptr noundef nonnull align 8 dereferenceable(16) %24)
          to label %_ZN9grpc_core5SliceD2Ev.exit unwind label %32

32:                                               ; preds = %29
  %33 = landingpad { ptr, i32 }
          catch ptr null
  %34 = extractvalue { ptr, i32 } %33, 0
  tail call void @__clang_call_terminate(ptr %34) #30
  unreachable

_ZN9grpc_core5SliceD2Ev.exit:                     ; preds = %23, %26, %29
  %35 = load ptr, ptr %6, align 8, !tbaa !107
  %36 = icmp ugt ptr %35, inttoptr (i64 1 to ptr)
  br i1 %36, label %37, label %_ZN9grpc_core5SliceD2Ev.exit16

37:                                               ; preds = %_ZN9grpc_core5SliceD2Ev.exit
  %38 = atomicrmw sub ptr %35, i64 1 acq_rel, align 8
  %39 = icmp eq i64 %38, 1
  br i1 %39, label %40, label %_ZN9grpc_core5SliceD2Ev.exit16

40:                                               ; preds = %37
  %41 = getelementptr inbounds nuw i8, ptr %35, i64 8
  %42 = load ptr, ptr %41, align 8, !tbaa !123
  invoke void %42(ptr noundef nonnull align 8 dereferenceable(16) %35)
          to label %_ZN9grpc_core5SliceD2Ev.exit16 unwind label %43

43:                                               ; preds = %40
  %44 = landingpad { ptr, i32 }
          catch ptr null
  %45 = extractvalue { ptr, i32 } %44, 0
  tail call void @__clang_call_terminate(ptr %45) #30
  unreachable

46:                                               ; preds = %22
  %47 = landingpad { ptr, i32 }
          cleanup
  call void @_ZN9grpc_core5SliceD2Ev(ptr noundef nonnull align 8 dereferenceable(32) %7) #27
  br label %66

48:                                               ; preds = %5
  %49 = icmp ugt ptr %10, inttoptr (i64 1 to ptr)
  br i1 %49, label %50, label %_ZNK9grpc_core5Slice3RefEv.exit17

50:                                               ; preds = %48
  %51 = atomicrmw add ptr %10, i64 1 monotonic, align 8, !noalias !331
  br label %_ZNK9grpc_core5Slice3RefEv.exit17

_ZNK9grpc_core5Slice3RefEv.exit17:                ; preds = %48, %50
  call void @llvm.memcpy.p0.p0.i64(ptr noundef nonnull align 8 dereferenceable(32) %8, ptr noundef nonnull align 8 dereferenceable(32) %2, i64 32, i1 false), !tbaa.struct !237
  invoke void @_ZN9grpc_core20hpack_encoder_detail7Encoder31EncodeIndexedKeyWithBinaryValueEPjSt17basic_string_viewIcSt11char_traitsIcEENS_5SliceE(ptr noundef nonnull align 8 dereferenceable(24) %0, ptr noundef %3, i64 %9, ptr %.sroa.22.0.copyload, ptr noundef nonnull %8)
          to label %52 unwind label %64

52:                                               ; preds = %_ZNK9grpc_core5Slice3RefEv.exit17
  %53 = load ptr, ptr %8, align 8, !tbaa !107
  %54 = icmp ugt ptr %53, inttoptr (i64 1 to ptr)
  br i1 %54, label %55, label %_ZN9grpc_core5SliceD2Ev.exit16

55:                                               ; preds = %52
  %56 = atomicrmw sub ptr %53, i64 1 acq_rel, align 8
  %57 = icmp eq i64 %56, 1
  br i1 %57, label %58, label %_ZN9grpc_core5SliceD2Ev.exit16

58:                                               ; preds = %55
  %59 = getelementptr inbounds nuw i8, ptr %53, i64 8
  %60 = load ptr, ptr %59, align 8, !tbaa !123
  invoke void %60(ptr noundef nonnull align 8 dereferenceable(16) %53)
          to label %_ZN9grpc_core5SliceD2Ev.exit16 unwind label %61

61:                                               ; preds = %58
  %62 = landingpad { ptr, i32 }
          catch ptr null
  %63 = extractvalue { ptr, i32 } %62, 0
  tail call void @__clang_call_terminate(ptr %63) #30
  unreachable

64:                                               ; preds = %_ZNK9grpc_core5Slice3RefEv.exit17
  %65 = landingpad { ptr, i32 }
          cleanup
  br label %66

_ZN9grpc_core5SliceD2Ev.exit16:                   ; preds = %58, %55, %52, %40, %37, %_ZN9grpc_core5SliceD2Ev.exit
  ret void

66:                                               ; preds = %64, %46
  %.sink = phi ptr [ %8, %64 ], [ %6, %46 ]
  %.pn.pn = phi { ptr, i32 } [ %65, %64 ], [ %47, %46 ]
  call void @_ZN9grpc_core5SliceD2Ev(ptr noundef nonnull align 8 dereferenceable(32) %.sink) #27
  resume { ptr, i32 } %.pn.pn
}